; Function Attrs: mustprogress uwtable
define ptr @gguf_get_val_data(ptr noundef readonly captures(none) %0, i64 noundef %1) local_unnamed_addr #2 {
  %3 = icmp sgt i64 %1, -1
  br i1 %3, label %4, label %14

4:                                                ; preds = %2
  %5 = getelementptr inbounds nuw i8, ptr %0, i64 8
  %6 = getelementptr inbounds nuw i8, ptr %0, i64 16
  %7 = load ptr, ptr %6, align 8, !tbaa !49
  %8 = load ptr, ptr %5, align 8, !tbaa !48
  %9 = ptrtoint ptr %7 to i64
  %10 = ptrtoint ptr %8 to i64
  %11 = sub i64 %9, %10
  %12 = sdiv exact i64 %11, 88
  %13 = icmp slt i64 %1, %12
  br i1 %13, label %15, label %14

14:                                               ; preds = %4, %2
  tail call void (ptr, i32, ptr, ...) @ggml_abort(ptr noundef nonnull @.str.28, i32 noundef 875, ptr noundef nonnull @.str.29, ptr noundef nonnull @.str.53) #33
  unreachable

15:                                               ; preds = %4
  %16 = getelementptr inbounds nuw %struct.gguf_kv, ptr %8, i64 %1
  %17 = tail call noundef i64 @_ZNK7gguf_kv6get_neEv(ptr noundef nonnull align 8 dereferenceable(88) %16)
  %18 = icmp eq i64 %17, 1
  br i1 %18, label %20, label %19

19:                                               ; preds = %15
  tail call void (ptr, i32, ptr, ...) @ggml_abort(ptr noundef nonnull @.str.28, i32 noundef 876, ptr noundef nonnull @.str.29, ptr noundef nonnull @.str.58) #33
  unreachable

20:                                               ; preds = %15
  %21 = load ptr, ptr %5, align 8, !tbaa !48
  %22 = getelementptr inbounds nuw %struct.gguf_kv, ptr %21, i64 %1
  %23 = getelementptr inbounds nuw i8, ptr %22, i64 36
  %24 = load i32, ptr %23, align 4, !tbaa !17
  %.not = icmp eq i32 %24, 8
  br i1 %.not, label %25, label %26

25:                                               ; preds = %20
  tail call void (ptr, i32, ptr, ...) @ggml_abort(ptr noundef nonnull @.str.28, i32 noundef 877, ptr noundef nonnull @.str.29, ptr noundef nonnull @.str.55) #33
  unreachable

26:                                               ; preds = %20
  %27 = getelementptr inbounds nuw i8, ptr %22, i64 40
  %28 = load ptr, ptr %27, align 8, !tbaa !98
  ret ptr %28
}